#include <math.h>
#include <stdio.h>
#include <stdlib.h>
#include <string.h>

    int main()
    {
        int n;
        int func(int n);
        scanf("%d",&n);
        if(n==1) printf("End");
        else {func(n);printf("End");}
        
        return 0;
    }
    int func(int n)
    {
        if(n%2==0) {n=n/2;printf("%d/2=%d\n",2*n,n);}
        else {n=3*n+1;printf("%d*3+1=%d\n",(n-1)/3,n);}
        if(n!=1) func(n);
    } 
